target datalayout = "e-m:e-p270:32:32-p271:32:32-p272:64:64-i64:64-i128:128-f80:128-n8:16:32:64-S128"
target triple = "x86_64-pc-linux-gnu"

; Function Attrs: nounwind uwtable
define noalias ptr @png_create_info_struct(ptr noalias noundef %0) #0 {
  %2 = alloca ptr, align 8
  %3 = alloca ptr, align 8
  %4 = alloca ptr, align 8
  store ptr %0, ptr %3, align 8
  %5 = load ptr, ptr %3, align 8
  %6 = icmp eq ptr %5, null
  br i1 %6, label %7, label %8

7:                                                ; preds = %1
  store ptr null, ptr %2, align 8
  br label %17

8:                                                ; preds = %1
  %9 = load ptr, ptr %3, align 8
  %10 = call noalias ptr @png_malloc_base(ptr noundef %9, i64 noundef 360)
  store ptr %10, ptr %4, align 8
  %11 = load ptr, ptr %4, align 8
  %12 = icmp ne ptr %11, null
  br i1 %12, label %13, label %15

13:                                               ; preds = %8
  %14 = load ptr, ptr %4, align 8
  call void @llvm.memset.p0.i64(ptr align 8 %14, i8 0, i64 360, i1 false)
  br label %15

15:                                               ; preds = %13, %8
  %16 = load ptr, ptr %4, align 8
  store ptr %16, ptr %2, align 8
  br label %17

17:                                               ; preds = %15, %7
  %18 = load ptr, ptr %2, align 8
  ret ptr %18
}