; Function Attrs: nounwind uwtable
define noalias ptr @png_create_info_struct(ptr noalias noundef %0) local_unnamed_addr #0 {
  %2 = icmp eq ptr %0, null
  br i1 %2, label %6, label %3

3:                                                ; preds = %1
  %4 = tail call noalias ptr @png_malloc_base(ptr noundef nonnull %0, i64 noundef 360) #29
  %.not = icmp eq ptr %4, null
  br i1 %.not, label %6, label %5

5:                                                ; preds = %3
  tail call void @llvm.memset.p0.i64(ptr noundef nonnull align 8 dereferenceable(360) %4, i8 0, i64 360, i1 false)
  br label %6

6:                                                ; preds = %3, %5, %1
  %.0 = phi ptr [ null, %1 ], [ %4, %5 ], [ null, %3 ]
  ret ptr %.0
}